; Function Attrs: mustprogress nounwind uwtable
define void @_ZN6Assimp13ObjFileParserD2Ev(ptr noundef nonnull align 8 dereferenceable(4176) %this) unnamed_addr #0 align 2 personality ptr @__gxx_personality_v0 {
entry:
  %m_originalObjFileName = getelementptr inbounds i8, ptr %this, i64 4144
  tail call void @_ZNSt7__cxx1112basic_stringIcSt11char_traitsIcESaIcEED1Ev(ptr noundef nonnull align 8 dereferenceable(32) %m_originalObjFileName) #21
  %m_pModel = getelementptr inbounds i8, ptr %this, i64 16
  %0 = load ptr, ptr %m_pModel, align 8
  %cmp.not.i = icmp eq ptr %0, null
  br i1 %cmp.not.i, label %_ZNSt10unique_ptrIN6Assimp7ObjFile5ModelESt14default_deleteIS2_EED2Ev.exit, label %_ZNKSt14default_deleteIN6Assimp7ObjFile5ModelEEclEPS2_.exit.i

_ZNKSt14default_deleteIN6Assimp7ObjFile5ModelEEclEPS2_.exit.i: ; preds = %entry
  tail call void @_ZN6Assimp7ObjFile5ModelD2Ev(ptr noundef nonnull align 8 dereferenceable(376) %0) #21
  tail call void @_ZdlPv(ptr noundef nonnull %0) #22
  br label %_ZNSt10unique_ptrIN6Assimp7ObjFile5ModelESt14default_deleteIS2_EED2Ev.exit

_ZNSt10unique_ptrIN6Assimp7ObjFile5ModelESt14default_deleteIS2_EED2Ev.exit: ; preds = %entry, %_ZNKSt14default_deleteIN6Assimp7ObjFile5ModelEEclEPS2_.exit.i
  store ptr null, ptr %m_pModel, align 8
  ret void
}